	.file	"prog2.bc"
	.file	1 "prog2.c"
	.text
	.globl	OutDig
	.type	OutDig,@function
OutDig:                                 # @OutDig
	.cfi_startproc
.Lfunc_begin0:
	.loc	1 91 0                  # prog2.c:91:0
# BB#0:                                 # %entry
	#DEBUG_VALUE: OutDig:dig <- RDI+0
	.loc	1 92 0 prologue_end     # prog2.c:92:0
	addq	$48, %rdi
.Ltmp0:
	jmp	putchar                 # TAILCALL
.Ltmp1:
.Ltmp2:
	.size	OutDig, .Ltmp2-OutDig
.Lfunc_end0:
	.cfi_endproc

	.globl	PrintVal
	.type	PrintVal,@function
PrintVal:                               # @PrintVal
	.cfi_startproc
.Lfunc_begin1:
	.loc	1 95 0                  # prog2.c:95:0
# BB#0:                                 # %entry
	pushq	%rbx
.Ltmp5:
	.cfi_def_cfa_offset 16
.Ltmp6:
	.cfi_offset %rbx, -16
	#DEBUG_VALUE: PrintVal:val <- RDI+0
	movq	%rdi, %rbx
.Ltmp7:
	#DEBUG_VALUE: PrintVal:val <- RBX+0
	.loc	1 96 0 prologue_end     # prog2.c:96:0
	cmpq	$10, %rbx
	jl	.LBB1_2
# BB#1:                                 # %if.then
	#DEBUG_VALUE: PrintVal:val <- RBX+0
	movabsq	$7378697629483820647, %rcx # imm = 0x6666666666666667
	movq	%rbx, %rax
	imulq	%rcx
	movq	%rdx, %rax
	shrq	$63, %rax
	sarq	$2, %rdx
	leaq	(%rdx,%rax), %rdi
	callq	PrintVal
.LBB1_2:                                # %if.end
.Ltmp8:
	#DEBUG_VALUE: PrintVal:val <- RBX+0
	movabsq	$7378697629483820647, %rcx # imm = 0x6666666666666667
	.loc	1 97 0                  # prog2.c:97:0
	movq	%rbx, %rax
	imulq	%rcx
	movq	%rdx, %rax
	shrq	$63, %rax
	sarq	$2, %rdx
	addq	%rax, %rdx
	shlq	$1, %rdx
	leaq	(%rdx,%rdx,4), %rax
	negq	%rax
	.loc	1 92 0                  # prog2.c:92:0
.Ltmp9:
	leaq	48(%rbx,%rax), %rdi
	popq	%rbx
.Ltmp10:
	jmp	putchar                 # TAILCALL
.Ltmp11:
.Ltmp12:
	.size	PrintVal, .Ltmp12-PrintVal
.Lfunc_end1:
	.cfi_endproc

	.globl	PrintShort
	.type	PrintShort,@function
PrintShort:                             # @PrintShort
	.cfi_startproc
.Lfunc_begin2:
	.loc	1 102 0                 # prog2.c:102:0
# BB#0:                                 # %entry
	pushq	%r14
.Ltmp16:
	.cfi_def_cfa_offset 16
	pushq	%rbx
.Ltmp17:
	.cfi_def_cfa_offset 24
	pushq	%rax
.Ltmp18:
	.cfi_def_cfa_offset 32
.Ltmp19:
	.cfi_offset %rbx, -24
.Ltmp20:
	.cfi_offset %r14, -16
	#DEBUG_VALUE: PrintShort:num <- RDI+0
	movq	%rdi, %r14
.Ltmp21:
	#DEBUG_VALUE: x <- 0+0
	#DEBUG_VALUE: PrintShort:num <- R14+0
	movabsq	$7378697629483820647, %rcx # imm = 0x6666666666666667
	.loc	1 109 0 prologue_end    # prog2.c:109:0
.Ltmp22:
	movq	%r14, %rax
	imulq	%rcx
	movq	%rdx, %rbx
	movq	%rbx, %rax
	shrq	$63, %rax
	sarq	$2, %rbx
	addq	%rax, %rbx
.Ltmp23:
	#DEBUG_VALUE: PrintShort:num <- RBX+0
	.loc	1 108 0                 # prog2.c:108:0
	movq	%rbx, %rax
	imulq	%rcx
	movq	%rdx, %rax
	shrq	$63, %rax
	sarq	$2, %rdx
	addq	%rax, %rdx
	shlq	$1, %rdx
	leaq	(%rdx,%rdx,4), %rax
	movq	%rbx, %rcx
	subq	%rax, %rcx
.Ltmp24:
	#DEBUG_VALUE: OutDig:dig <- RCX+0
	#DEBUG_VALUE: x <- 1+0
	.loc	1 92 0                  # prog2.c:92:0
	leaq	48(%rcx), %rdi
	callq	putchar
.Ltmp25:
	.loc	1 108 0                 # prog2.c:108:0
	shlq	$1, %rbx
.Ltmp26:
	leaq	(%rbx,%rbx,4), %rax
	negq	%rax
.Ltmp27:
	.loc	1 92 0                  # prog2.c:92:0
	leaq	48(%r14,%rax), %rdi
.Ltmp28:
	#DEBUG_VALUE: x <- 0+0
	callq	putchar
.Ltmp29:
	.loc	1 113 0                 # prog2.c:113:0
	addq	$8, %rsp
	popq	%rbx
	popq	%r14
	ret
.Ltmp30:
.Ltmp31:
	.size	PrintShort, .Ltmp31-PrintShort
.Lfunc_end2:
	.cfi_endproc

	.globl	Print
	.type	Print,@function
Print:                                  # @Print
	.cfi_startproc
.Lfunc_begin3:
	.loc	1 116 0                 # prog2.c:116:0
# BB#0:                                 # %entry
	pushq	%r15
.Ltmp37:
	.cfi_def_cfa_offset 16
	pushq	%r14
.Ltmp38:
	.cfi_def_cfa_offset 24
	pushq	%r12
.Ltmp39:
	.cfi_def_cfa_offset 32
	pushq	%rbx
.Ltmp40:
	.cfi_def_cfa_offset 40
	pushq	%rax
.Ltmp41:
	.cfi_def_cfa_offset 48
.Ltmp42:
	.cfi_offset %rbx, -40
.Ltmp43:
	.cfi_offset %r12, -32
.Ltmp44:
	.cfi_offset %r14, -24
.Ltmp45:
	.cfi_offset %r15, -16
	#DEBUG_VALUE: Print:num <- RDI+0
	movq	%rdi, %r14
.Ltmp46:
	#DEBUG_VALUE: Print:num <- R14+0
	movabsq	$51, %rdi
	.loc	1 119 0 prologue_end    # prog2.c:119:0
.Ltmp47:
	callq	putchar
	movabsq	$46, %rdi
	.loc	1 120 0                 # prog2.c:120:0
	callq	putchar
	movabsq	$1, %r12
.Ltmp48:
	#DEBUG_VALUE: x <- 1+0
	.loc	1 121 0                 # prog2.c:121:0
	cmpq	$2, size(%rip)
	jl	.LBB3_2
.LBB3_1:                                # %for.body
                                        # =>This Inner Loop Header: Depth=1
.Ltmp49:
	#DEBUG_VALUE: Print:num <- R14+0
	#DEBUG_VALUE: x <- 1+0
	.loc	1 122 0                 # prog2.c:122:0
	movq	(%r14,%r12,8), %r15
.Ltmp50:
	#DEBUG_VALUE: PrintShort:num <- R15+0
	movabsq	$7378697629483820647, %rcx # imm = 0x6666666666666667
	.loc	1 109 0                 # prog2.c:109:0
.Ltmp51:
	movq	%r15, %rax
	imulq	%rcx
	movq	%rdx, %rbx
	movq	%rbx, %rax
	shrq	$63, %rax
	sarq	$2, %rbx
	addq	%rax, %rbx
.Ltmp52:
	#DEBUG_VALUE: x <- 0+0
	#DEBUG_VALUE: PrintShort:num <- RBX+0
	.loc	1 108 0                 # prog2.c:108:0
	movq	%rbx, %rax
	imulq	%rcx
	movq	%rdx, %rax
	shrq	$63, %rax
	sarq	$2, %rdx
	addq	%rax, %rdx
	shlq	$1, %rdx
	leaq	(%rdx,%rdx,4), %rax
	movq	%rbx, %rcx
	subq	%rax, %rcx
.Ltmp53:
	#DEBUG_VALUE: OutDig:dig <- RCX+0
	#DEBUG_VALUE: x <- 1+0
	.loc	1 92 0                  # prog2.c:92:0
	leaq	48(%rcx), %rdi
	callq	putchar
.Ltmp54:
	.loc	1 108 0                 # prog2.c:108:0
	shlq	$1, %rbx
.Ltmp55:
	leaq	(%rbx,%rbx,4), %rax
	negq	%rax
	.loc	1 92 0                  # prog2.c:92:0
.Ltmp56:
	leaq	48(%r15,%rax), %rdi
.Ltmp57:
	#DEBUG_VALUE: x <- 0+0
	callq	putchar
.Ltmp58:
	.loc	1 121 0                 # prog2.c:121:0
	incq	%r12
.Ltmp59:
	#DEBUG_VALUE: x <- R12+0
	cmpq	size(%rip), %r12
	jl	.LBB3_1
.Ltmp60:
.LBB3_2:                                # %for.end
	movabsq	$10, %rdi
	.loc	1 123 0                 # prog2.c:123:0
	addq	$8, %rsp
	popq	%rbx
	popq	%r12
	popq	%r14
	popq	%r15
	jmp	putchar                 # TAILCALL
.Ltmp61:
.Ltmp62:
	.size	Print, .Ltmp62-Print
.Lfunc_end3:
	.cfi_endproc

	.globl	arctan
	.type	arctan,@function
arctan:                                 # @arctan
	.cfi_startproc
.Lfunc_begin4:
	.loc	1 127 0                 # prog2.c:127:0
# BB#0:                                 # %entry
	pushq	%r14
.Ltmp66:
	.cfi_def_cfa_offset 16
	pushq	%rbx
.Ltmp67:
	.cfi_def_cfa_offset 24
.Ltmp68:
	.cfi_offset %rbx, -24
.Ltmp69:
	.cfi_offset %r14, -16
	#DEBUG_VALUE: arctan:multiplier <- RDI+0
	#DEBUG_VALUE: arctan:denom <- RSI+0
	#DEBUG_VALUE: arctan:sign <- RDX+0
.Ltmp70:
	#DEBUG_VALUE: denom2 <- RSI+0
	movq	%rdx, %r8
.Ltmp71:
	#DEBUG_VALUE: x <- 0+0
	#DEBUG_VALUE: NotZero <- 1+0
	#DEBUG_VALUE: arctan:sign <- R8+0
	xorq	%rcx, %rcx
	.loc	1 134 0 prologue_end    # prog2.c:134:0
.Ltmp72:
	movq	powers(%rip), %r9
	.loc	1 133 0                 # prog2.c:133:0
	movq	size(%rip), %rax
	testq	%rax, %rax
	jle	.LBB4_2
.LBB4_1:                                # %for.body
                                        # =>This Inner Loop Header: Depth=1
	#DEBUG_VALUE: arctan:multiplier <- RDI+0
	#DEBUG_VALUE: arctan:denom <- RSI+0
	#DEBUG_VALUE: arctan:sign <- R8+0
	#DEBUG_VALUE: denom2 <- RSI+0
	#DEBUG_VALUE: NotZero <- 1+0
	#DEBUG_VALUE: x <- 0+0
	.loc	1 134 0                 # prog2.c:134:0
	movq	$0, (%r9,%rcx,8)
	.loc	1 133 0                 # prog2.c:133:0
	incq	%rcx
.Ltmp73:
	#DEBUG_VALUE: x <- RCX+0
	movq	size(%rip), %rax
	cmpq	%rax, %rcx
	jl	.LBB4_1
.Ltmp74:
.LBB4_2:                                # %for.end
	#DEBUG_VALUE: arctan:multiplier <- RDI+0
	#DEBUG_VALUE: arctan:denom <- RSI+0
	#DEBUG_VALUE: arctan:sign <- R8+0
	#DEBUG_VALUE: denom2 <- RSI+0
	#DEBUG_VALUE: NotZero <- 1+0
	#DEBUG_VALUE: divisor <- 1+0
	.loc	1 140 0                 # prog2.c:140:0
	imulq	%rsi, %rdi
.Ltmp75:
	#DEBUG_VALUE: adv <- 0+0
	#DEBUG_VALUE: remain <- RDI+0
	xorq	%rbx, %rbx
	.loc	1 137 0                 # prog2.c:137:0
	imulq	%rsi, %rsi
.Ltmp76:
	movabsq	$1, %r10
	.loc	1 183 0                 # prog2.c:183:0
.Ltmp77:
	movq	term(%rip), %r11
	movq	pi(%rip), %r14
.Ltmp78:
.LBB4_3:                                # %while.cond.outer
                                        # =>This Loop Header: Depth=1
                                        #     Child Loop BB4_4 Depth 2
                                        #     Child Loop BB4_6 Depth 2
                                        #     Child Loop BB4_11 Depth 2
                                        #     Child Loop BB4_10 Depth 2
                                        #     Child Loop BB4_13 Depth 2
                                        #     Child Loop BB4_16 Depth 2
	#DEBUG_VALUE: denom2 <- RSI+0
	#DEBUG_VALUE: NotZero <- 1+0
	#DEBUG_VALUE: x <- RBX+0
	#DEBUG_VALUE: divisor <- 1+0
	#DEBUG_VALUE: adv <- 0+0
	.loc	1 143 0                 # prog2.c:143:0
	cmpq	%rax, %rbx
	movq	%rbx, %rcx
	jge	.LBB4_5
.Ltmp79:
.LBB4_4:                                # %for.body4
                                        #   Parent Loop BB4_3 Depth=1
                                        # =>  This Inner Loop Header: Depth=2
	#DEBUG_VALUE: denom2 <- RSI+0
	#DEBUG_VALUE: NotZero <- 1+0
	#DEBUG_VALUE: divisor <- 1+0
	#DEBUG_VALUE: adv <- 0+0
	.loc	1 145 0                 # prog2.c:145:0
	addq	(%r9,%rcx,8), %rdi
.Ltmp80:
	#DEBUG_VALUE: temp <- RDI+0
	.loc	1 146 0                 # prog2.c:146:0
	movq	%rdi, %rax
	cqto
	idivq	%rsi
	movq	%rax, (%r9,%rcx,8)
	.loc	1 147 0                 # prog2.c:147:0
	imulq	%rsi, %rax
	subq	%rax, %rdi
.Ltmp81:
	imulq	$100, %rdi, %rdi
.Ltmp82:
	#DEBUG_VALUE: remain <- RDI+0
	.loc	1 143 0                 # prog2.c:143:0
	incq	%rcx
.Ltmp83:
	#DEBUG_VALUE: x <- RCX+0
	movq	size(%rip), %rax
	cmpq	%rax, %rcx
	jl	.LBB4_4
.Ltmp84:
.LBB4_5:                                # %for.cond13.loopexit
                                        #   in Loop: Header=BB4_3 Depth=1
	#DEBUG_VALUE: denom2 <- RSI+0
	#DEBUG_VALUE: NotZero <- 1+0
	#DEBUG_VALUE: divisor <- 1+0
	#DEBUG_VALUE: adv <- 0+0
	xorq	%rdi, %rdi
	.loc	1 151 0                 # prog2.c:151:0
.Ltmp85:
	cmpq	%rax, %rbx
	movq	%rbx, %rcx
	jge	.LBB4_7
.LBB4_6:                                # %for.body15
                                        #   Parent Loop BB4_3 Depth=1
                                        # =>  This Inner Loop Header: Depth=2
	#DEBUG_VALUE: denom2 <- RSI+0
	#DEBUG_VALUE: NotZero <- 1+0
	#DEBUG_VALUE: divisor <- 1+0
	#DEBUG_VALUE: adv <- 0+0
	.loc	1 153 0                 # prog2.c:153:0
.Ltmp86:
	addq	(%r9,%rcx,8), %rdi
.Ltmp87:
	#DEBUG_VALUE: temp <- RDI+0
	.loc	1 154 0                 # prog2.c:154:0
	movq	%rdi, %rax
	cqto
	idivq	%r10
	movq	%rax, (%r11,%rcx,8)
	.loc	1 155 0                 # prog2.c:155:0
	imulq	%r10, %rax
	subq	%rax, %rdi
.Ltmp88:
	imulq	$100, %rdi, %rdi
.Ltmp89:
	#DEBUG_VALUE: remain <- RDI+0
	.loc	1 151 0                 # prog2.c:151:0
	incq	%rcx
.Ltmp90:
	#DEBUG_VALUE: x <- RCX+0
	movq	size(%rip), %rax
	cmpq	%rax, %rcx
	jl	.LBB4_6
.Ltmp91:
.LBB4_7:                                # %for.end26
                                        #   in Loop: Header=BB4_3 Depth=1
	#DEBUG_VALUE: denom2 <- RSI+0
	#DEBUG_VALUE: NotZero <- 1+0
	#DEBUG_VALUE: divisor <- 1+0
	#DEBUG_VALUE: adv <- 0+0
	.loc	1 159 0                 # prog2.c:159:0
	testq	%r8, %r8
.Ltmp92:
	#DEBUG_VALUE: remain <- 0+0
	jle	.LBB4_9
# BB#8:                                 # %for.cond29.preheader
                                        #   in Loop: Header=BB4_3 Depth=1
	#DEBUG_VALUE: denom2 <- RSI+0
	#DEBUG_VALUE: NotZero <- 1+0
	#DEBUG_VALUE: divisor <- 1+0
	#DEBUG_VALUE: remain <- 0+0
	#DEBUG_VALUE: adv <- 0+0
	xorq	%rcx, %rcx
	testq	%rax, %rax
	.loc	1 164 0                 # prog2.c:164:0
.Ltmp93:
	jg	.LBB4_10
	jmp	.LBB4_12
.LBB4_10:                               # %for.body31
                                        #   Parent Loop BB4_3 Depth=1
                                        # =>  This Inner Loop Header: Depth=2
	#DEBUG_VALUE: denom2 <- RSI+0
	#DEBUG_VALUE: NotZero <- 1+0
	#DEBUG_VALUE: divisor <- 1+0
	#DEBUG_VALUE: remain <- 0+0
	#DEBUG_VALUE: adv <- 0+0
	.loc	1 166 0                 # prog2.c:166:0
.Ltmp94:
	addq	-8(%r14,%rax,8), %rcx
	movq	-8(%r11,%rax,8), %rdx
	.loc	1 171 0                 # prog2.c:171:0
.Ltmp95:
	leaq	-100(%rdx,%rcx), %rdi
.Ltmp96:
	#DEBUG_VALUE: sum <- RDI+0
	#DEBUG_VALUE: carry <- 0+0
	.loc	1 166 0                 # prog2.c:166:0
	addq	%rdx, %rcx
.Ltmp97:
	#DEBUG_VALUE: sum <- RCX+0
	.loc	1 168 0                 # prog2.c:168:0
	cmpq	$99, %rcx
	pushfq
	popq	%rdx
	testq	%rdx, %rdx
	cmovneq	%rdi, %rcx
.Ltmp98:
	.loc	1 173 0                 # prog2.c:173:0
	movq	%rcx, -8(%r14,%rax,8)
.Ltmp99:
	.loc	1 164 0                 # prog2.c:164:0
	decq	%rax
	testq	%rax, %rax
	movq	%rdx, %rcx
	jg	.LBB4_10
	jmp	.LBB4_12
.Ltmp100:
.LBB4_9:                                # %for.cond44.preheader
                                        #   in Loop: Header=BB4_3 Depth=1
	#DEBUG_VALUE: denom2 <- RSI+0
	#DEBUG_VALUE: NotZero <- 1+0
	#DEBUG_VALUE: divisor <- 1+0
	#DEBUG_VALUE: remain <- 0+0
	#DEBUG_VALUE: adv <- 0+0
	xorq	%rdx, %rdx
	testq	%rax, %rax
	.loc	1 181 0                 # prog2.c:181:0
.Ltmp101:
	jg	.LBB4_11
	jmp	.LBB4_12
.LBB4_11:                               # %for.body46
                                        #   Parent Loop BB4_3 Depth=1
                                        # =>  This Inner Loop Header: Depth=2
	#DEBUG_VALUE: denom2 <- RSI+0
	#DEBUG_VALUE: NotZero <- 1+0
	#DEBUG_VALUE: divisor <- 1+0
	#DEBUG_VALUE: remain <- 0+0
	#DEBUG_VALUE: adv <- 0+0
	.loc	1 183 0                 # prog2.c:183:0
.Ltmp102:
	movq	-8(%r14,%rax,8), %rcx
	subq	-8(%r11,%rax,8), %rcx
	subq	%rdx, %rcx
.Ltmp103:
	#DEBUG_VALUE: sum <- RCX+0
	.loc	1 188 0                 # prog2.c:188:0
	leaq	100(%rcx), %rdx
.Ltmp104:
	#DEBUG_VALUE: borrow <- 0+0
	#DEBUG_VALUE: sum <- RDX+0
	.loc	1 185 0                 # prog2.c:185:0
	testq	%rcx, %rcx
	pushfq
	popq	%rdi
	testq	%rdi, %rdi
	cmoveq	%rcx, %rdx
.Ltmp105:
	.loc	1 190 0                 # prog2.c:190:0
	movq	%rdx, -8(%r14,%rax,8)
	.loc	1 185 0                 # prog2.c:185:0
	shrq	$63, %rcx
.Ltmp106:
	.loc	1 181 0                 # prog2.c:181:0
	decq	%rax
	testq	%rax, %rax
	movq	%rcx, %rdx
	jg	.LBB4_11
.Ltmp107:
.LBB4_12:                               # %if.end59
                                        #   in Loop: Header=BB4_3 Depth=1
	#DEBUG_VALUE: denom2 <- RSI+0
	#DEBUG_VALUE: NotZero <- 1+0
	#DEBUG_VALUE: divisor <- 1+0
	#DEBUG_VALUE: remain <- 0+0
	#DEBUG_VALUE: adv <- 0+0
	.loc	1 195 0                 # prog2.c:195:0
	addq	$2, %r10
.Ltmp108:
	#DEBUG_VALUE: divisor <- R10+0
	.loc	1 194 0                 # prog2.c:194:0
	negq	%r8
.Ltmp109:
	#DEBUG_VALUE: arctan:sign <- R8+0
	.loc	1 197 0                 # prog2.c:197:0
	movq	size(%rip), %rax
.Ltmp110:
	#DEBUG_VALUE: NotZero <- 0+0
	movq	%rbx, %rcx
.LBB4_13:                               # %for.cond62
                                        #   Parent Loop BB4_3 Depth=1
                                        # =>  This Inner Loop Header: Depth=2
	#DEBUG_VALUE: arctan:sign <- R8+0
	#DEBUG_VALUE: denom2 <- RSI+0
	#DEBUG_VALUE: NotZero <- 0+0
	#DEBUG_VALUE: divisor <- R10+0
	#DEBUG_VALUE: remain <- 0+0
	#DEBUG_VALUE: adv <- 0+0
	cmpq	%rax, %rcx
	jge	.LBB4_17
# BB#14:                                # %for.body64
                                        #   in Loop: Header=BB4_13 Depth=2
	#DEBUG_VALUE: arctan:sign <- R8+0
.Ltmp111:
	#DEBUG_VALUE: denom2 <- RSI+0
	#DEBUG_VALUE: NotZero <- 0+0
	#DEBUG_VALUE: x <- RCX+0
	#DEBUG_VALUE: divisor <- R10+0
	#DEBUG_VALUE: remain <- 0+0
	#DEBUG_VALUE: adv <- 0+0
	.loc	1 199 0                 # prog2.c:199:0
	cmpq	$0, (%r9,%rcx,8)
.Ltmp112:
	.loc	1 197 0                 # prog2.c:197:0
	leaq	1(%rcx), %rcx
.Ltmp113:
	.loc	1 199 0                 # prog2.c:199:0
	je	.LBB4_13
.Ltmp114:
# BB#15:                                # %while.cond74.loopexit
                                        #   in Loop: Header=BB4_3 Depth=1
	#DEBUG_VALUE: arctan:sign <- R8+0
	decq	%rbx
.LBB4_16:                               # %while.cond74
                                        #   Parent Loop BB4_3 Depth=1
                                        # =>  This Inner Loop Header: Depth=2
.Ltmp115:
	#DEBUG_VALUE: arctan:sign <- R8+0
	xorq	%rdi, %rdi
	.loc	1 208 0                 # prog2.c:208:0
.Ltmp116:
	cmpq	$0, 8(%r9,%rbx,8)
	leaq	1(%rbx), %rbx
	je	.LBB4_16
	jmp	.LBB4_3
.Ltmp117:
.LBB4_17:                               # %while.cond.loopexit
	#DEBUG_VALUE: NotZero <- 0+0
	#DEBUG_VALUE: remain <- 0+0
	#DEBUG_VALUE: adv <- 0+0
	.loc	1 213 0                 # prog2.c:213:0
	popq	%rbx
	popq	%r14
	ret
.Ltmp118:
.Ltmp119:
	.size	arctan, .Ltmp119-arctan
.Lfunc_end4:
	.cfi_endproc

	.globl	_main
	.type	_main,@function
_main:                                  # @_main
	.cfi_startproc
.Lfunc_begin5:
	.loc	1 216 0                 # prog2.c:216:0
# BB#0:                                 # %entry
	pushq	%rbp
.Ltmp127:
	.cfi_def_cfa_offset 16
	pushq	%r15
.Ltmp128:
	.cfi_def_cfa_offset 24
	pushq	%r14
.Ltmp129:
	.cfi_def_cfa_offset 32
	pushq	%r13
.Ltmp130:
	.cfi_def_cfa_offset 40
	pushq	%r12
.Ltmp131:
	.cfi_def_cfa_offset 48
	pushq	%rbx
.Ltmp132:
	.cfi_def_cfa_offset 56
	pushq	%rax
.Ltmp133:
	.cfi_def_cfa_offset 64
.Ltmp134:
	.cfi_offset %rbx, -56
.Ltmp135:
	.cfi_offset %r12, -48
.Ltmp136:
	.cfi_offset %r13, -40
.Ltmp137:
	.cfi_offset %r14, -32
.Ltmp138:
	.cfi_offset %r15, -24
.Ltmp139:
	.cfi_offset %rbp, -16
	#DEBUG_VALUE: _main:argc <- RDI+0
	#DEBUG_VALUE: _main:argv <- RSI+0
	movq	%rsi, %rbx
.Ltmp140:
	#DEBUG_VALUE: _main:argv <- RBX+0
	.loc	1 220 0 prologue_end    # prog2.c:220:0
	cmpq	$2, %rdi
	je	.LBB5_2
.Ltmp141:
# BB#1:                                 # %if.then
	#DEBUG_VALUE: _main:argv <- RBX+0
	.loc	1 222 0                 # prog2.c:222:0
	movabsq	$.L.str, %rdi
	callq	puts
	movabsq	$1, %rdi
	.loc	1 223 0                 # prog2.c:223:0
	callq	llexit
.Ltmp142:
.LBB5_2:                                # %if.end
	#DEBUG_VALUE: _main:argv <- RBX+0
	.loc	1 226 0                 # prog2.c:226:0
	movq	8(%rbx), %rdi
	callq	atol
	movq	%rax, size(%rip)
	.loc	1 228 0                 # prog2.c:228:0
	testq	%rax, %rax
	jg	.LBB5_4
.Ltmp143:
# BB#3:                                 # %if.then3
	.loc	1 230 0                 # prog2.c:230:0
	movabsq	$.L.str1, %rdi
	callq	puts
	movabsq	$1, %rdi
	.loc	1 231 0                 # prog2.c:231:0
	callq	llexit
.Ltmp144:
	.loc	1 234 0                 # prog2.c:234:0
	movq	size(%rip), %rax
.LBB5_4:                                # %if.end5
	leaq	1(%rax), %rcx
	shrq	$63, %rcx
	leaq	1(%rax,%rcx), %rax
	sarq	%rax
	leaq	1(%rax), %rbp
	movq	%rbp, size(%rip)
	.loc	1 236 0                 # prog2.c:236:0
	leaq	8(,%rax,8), %rbx
	movq	%rbx, %rdi
	callq	malloc
	movq	%rax, %r14
	movq	%r14, pi(%rip)
	.loc	1 237 0                 # prog2.c:237:0
	movq	%rbx, %rdi
	callq	malloc
	movq	%rax, %r15
	movq	%r15, powers(%rip)
	.loc	1 238 0                 # prog2.c:238:0
	movq	%rbx, %rdi
	callq	malloc
	movq	%rax, term(%rip)
	.loc	1 240 0                 # prog2.c:240:0
	testq	%r14, %r14
	je	.LBB5_7
# BB#5:                                 # %if.end5
	testq	%r15, %r15
	je	.LBB5_7
# BB#6:                                 # %if.end5
	testq	%rax, %rax
	jne	.LBB5_8
.LBB5_7:                                # %if.then16
	.loc	1 242 0                 # prog2.c:242:0
.Ltmp145:
	movabsq	$.L.str2, %rdi
	callq	puts
	movabsq	$1, %rdi
	.loc	1 243 0                 # prog2.c:243:0
	callq	llexit
.Ltmp146:
	.loc	1 246 0                 # prog2.c:246:0
	movq	size(%rip), %rbp
.LBB5_8:                                # %for.cond.preheader
	testq	%rbp, %rbp
	jle	.LBB5_11
# BB#9:                                 # %for.body.lr.ph
	xorq	%rax, %rax
	.loc	1 247 0                 # prog2.c:247:0
	movq	pi(%rip), %rcx
.LBB5_10:                               # %for.body
                                        # =>This Inner Loop Header: Depth=1
	movq	$0, (%rcx,%rax,8)
	.loc	1 246 0                 # prog2.c:246:0
	incq	%rax
.Ltmp147:
	#DEBUG_VALUE: x <- RAX+0
	cmpq	size(%rip), %rax
	jl	.LBB5_10
.Ltmp148:
.LBB5_11:                               # %for.end
	xorq	%rdi, %rdi
	.loc	1 249 0                 # prog2.c:249:0
	callq	time
	movq	%rax, %r14
.Ltmp149:
	#DEBUG_VALUE: T1 <- R14+0
	movabsq	$1, %r13
	movabsq	$16, %rdi
	movabsq	$5, %rsi
	movabsq	$1, %rdx
	.loc	1 268 0                 # prog2.c:268:0
	callq	arctan
	movabsq	$4, %rdi
	movabsq	$239, %rsi
	movq	$-1, %rdx
	.loc	1 269 0                 # prog2.c:269:0
	callq	arctan
	xorq	%rdi, %rdi
	.loc	1 272 0                 # prog2.c:272:0
	callq	time
	movq	%rax, %r15
.Ltmp150:
	#DEBUG_VALUE: T2 <- R15+0
	.loc	1 274 0                 # prog2.c:274:0
	movq	pi(%rip), %rbp
.Ltmp151:
	#DEBUG_VALUE: Print:num <- RBP+0
	movabsq	$51, %rdi
	.loc	1 119 0                 # prog2.c:119:0
.Ltmp152:
	callq	putchar
	movabsq	$46, %rdi
	.loc	1 120 0                 # prog2.c:120:0
	callq	putchar
	.loc	1 121 0                 # prog2.c:121:0
	cmpq	$2, size(%rip)
.Ltmp153:
	#DEBUG_VALUE: x <- 1+0
	jl	.LBB5_13
.LBB5_12:                               # %for.body.i
                                        # =>This Inner Loop Header: Depth=1
	#DEBUG_VALUE: T1 <- R14+0
	#DEBUG_VALUE: T2 <- R15+0
.Ltmp154:
	#DEBUG_VALUE: Print:num <- RBP+0
	#DEBUG_VALUE: x <- 1+0
	.loc	1 122 0                 # prog2.c:122:0
	movq	(%rbp,%r13,8), %r12
.Ltmp155:
	#DEBUG_VALUE: PrintShort:num <- R12+0
	movabsq	$7378697629483820647, %rcx # imm = 0x6666666666666667
	.loc	1 109 0                 # prog2.c:109:0
.Ltmp156:
	movq	%r12, %rax
	imulq	%rcx
	movq	%rdx, %rbx
	movq	%rbx, %rax
	shrq	$63, %rax
	sarq	$2, %rbx
	addq	%rax, %rbx
.Ltmp157:
	#DEBUG_VALUE: x <- 0+0
	#DEBUG_VALUE: PrintShort:num <- RBX+0
	.loc	1 108 0                 # prog2.c:108:0
	movq	%rbx, %rax
	imulq	%rcx
	movq	%rdx, %rax
	shrq	$63, %rax
	sarq	$2, %rdx
	addq	%rax, %rdx
	shlq	$1, %rdx
	leaq	(%rdx,%rdx,4), %rax
	movq	%rbx, %rcx
	subq	%rax, %rcx
.Ltmp158:
	#DEBUG_VALUE: OutDig:dig <- RCX+0
	#DEBUG_VALUE: x <- 1+0
	.loc	1 92 0                  # prog2.c:92:0
	leaq	48(%rcx), %rdi
	callq	putchar
.Ltmp159:
	.loc	1 108 0                 # prog2.c:108:0
	shlq	$1, %rbx
.Ltmp160:
	leaq	(%rbx,%rbx,4), %rax
	negq	%rax
	.loc	1 92 0                  # prog2.c:92:0
.Ltmp161:
	leaq	48(%r12,%rax), %rdi
.Ltmp162:
	#DEBUG_VALUE: x <- 0+0
	callq	putchar
.Ltmp163:
	.loc	1 121 0                 # prog2.c:121:0
	incq	%r13
.Ltmp164:
	#DEBUG_VALUE: x <- R13+0
	cmpq	size(%rip), %r13
	jl	.LBB5_12
.Ltmp165:
.LBB5_13:                               # %Print.exit
	#DEBUG_VALUE: T1 <- R14+0
	#DEBUG_VALUE: T2 <- R15+0
	#DEBUG_VALUE: x <- 1+0
	movabsq	$10, %rdi
	.loc	1 123 0                 # prog2.c:123:0
	callq	putchar
.Ltmp166:
	.loc	1 277 0                 # prog2.c:277:0
	movabsq	$.L.str3, %rdi
	callq	puts
	.loc	1 278 0                 # prog2.c:278:0
	subq	%r14, %r15
.Ltmp167:
	movq	%r15, %rdi
	callq	PrintVal
	.loc	1 279 0                 # prog2.c:279:0
	movabsq	$.L.str4, %rdi
	callq	puts
	xorq	%rax, %rax
	.loc	1 282 0                 # prog2.c:282:0
	addq	$8, %rsp
	popq	%rbx
	popq	%r12
	popq	%r13
	popq	%r14
.Ltmp168:
	popq	%r15
	popq	%rbp
	ret
.Ltmp169:
.Ltmp170:
	.size	_main, .Ltmp170-_main
.Lfunc_end5:
	.cfi_endproc

	.type	size,@object            # @size
	.comm	size,8,8
	.type	powers,@object          # @powers
	.comm	powers,8,8
	.type	term,@object            # @term
	.comm	term,8,8
	.type	pi,@object              # @pi
	.comm	pi,8,8
	.type	.L.str,@object          # @.str
	.section	.rodata.str1.1,"aMS",@progbits,1
.L.str:
	.asciz	 "Syntax: ./prog2 <number>   - <number> indicates the number of digits to compute\n"
	.size	.L.str, 81

	.type	.L.str1,@object         # @.str1
.L.str1:
	.asciz	 "Invalid argument - need <number>\n"
	.size	.L.str1, 34

	.type	.L.str2,@object         # @.str2
.L.str2:
	.asciz	 "Unable to allocate enough memory.\n"
	.size	.L.str2, 35

	.type	.L.str3,@object         # @.str3
.L.str3:
	.asciz	 "Calculation time "
	.size	.L.str3, 18

	.type	.L.str4,@object         # @.str4
.L.str4:
	.asciz	 " cycles\n"
	.size	.L.str4, 9

	.text
.Ltext_end:
	.data
.Ldata_end:
	.text
.Lsection_end1:
	.text
.Ltext_begin:
	.data
	.section	".note.GNU-stack","",@progbits
